target datalayout = "e-m:e-p270:32:32-p271:32:32-p272:64:64-i64:64-i128:128-f80:128-n8:16:32:64-S128"
target triple = "x86_64-unknown-linux-gnu"

%struct.QemuTextConsole = type { %struct.QemuConsole, i32, i32, i32, i32, i32, i32, i32, i32, ptr, [2 x i32], [2 x i32], i32, i32, i32, i32, i32, i32, ptr, %struct.Fifo8 }
%struct.QemuConsole = type { %struct.Object, i32, ptr, ptr, %struct.DisplayScanout, i32, ptr, i32, ptr, i32, %struct.QemuUIInfo, ptr, ptr, ptr, %struct.CoQueue, %union.anon.0 }
%struct.Object = type { ptr, ptr, ptr, i32, ptr }
%struct.DisplayScanout = type { i32, %union.anon }
%union.anon = type { %struct.ScanoutTexture }
%struct.ScanoutTexture = type { i32, i8, i32, i32, i32, i32, i32, i32, ptr }
%struct.QemuUIInfo = type { i16, i16, i32, i32, i32, i32, i32 }
%struct.CoQueue = type { %struct.anon }
%struct.anon = type { ptr, ptr }
%union.anon.0 = type { %struct.QTailQLink }
%struct.QTailQLink = type { ptr, ptr }
%struct.Fifo8 = type { ptr, i32, i32, i32 }

@cursor_visible_phase = internal global i8 0, align 1
@cursor_timer = internal global ptr null, align 8
@.str.3 = private unnamed_addr constant [13 x i8] c"qemu-console\00", align 1
@.str.4 = private unnamed_addr constant [99 x i8] c"/home/dtcxzyw/WorkSpace/Projects/compilers/llvm-opt-benchmark/bench/qemu/qemu/include/ui/console.h\00", align 1
@__func__.QEMU_CONSOLE = private unnamed_addr constant [13 x i8] c"QEMU_CONSOLE\00", align 1

; Function Attrs: nounwind sspstrong uwtable
define internal i64 @qemu_clock_get_ms(i32 noundef %type) #0 {
entry:
  %type.addr = alloca i32, align 4
  store i32 %type, ptr %type.addr, align 4
  %0 = load i32, ptr %type.addr, align 4
  %call = call i64 @qemu_clock_get_ns(i32 noundef %0)
  %div = sdiv i64 %call, 1000000
  ret i64 %div
}

; Function Attrs: nounwind sspstrong uwtable
define dso_local void @qemu_text_console_update_cursor() #0 {
entry:
  %0 = load i8, ptr @cursor_visible_phase, align 1
  %tobool = trunc i8 %0 to i1
  %lnot = xor i1 %tobool, true
  %frombool = zext i1 %lnot to i8
  store i8 %frombool, ptr @cursor_visible_phase, align 1
  %call = call i32 @qemu_invalidate_text_consoles()
  %tobool1 = icmp ne i32 %call, 0
  br i1 %tobool1, label %if.then, label %if.end

if.then:                                          ; preds = %entry
  %1 = load ptr, ptr @cursor_timer, align 8
  %call2 = call i64 @qemu_clock_get_ms(i32 noundef 0)
  %add = add i64 %call2, 250
  call void @timer_mod(ptr noundef %1, i64 noundef %add)
  br label %if.end

if.end:                                           ; preds = %if.then, %entry
  ret void
}

; Function Attrs: nounwind sspstrong uwtable
define internal ptr @QEMU_CONSOLE(ptr noundef %obj) #0 {
entry:
  %obj.addr = alloca ptr, align 8
  store ptr %obj, ptr %obj.addr, align 8
  %0 = load ptr, ptr %obj.addr, align 8
  %call = call ptr @object_dynamic_cast_assert(ptr noundef %0, ptr noundef @.str.3, ptr noundef @.str.4, i32 noundef 12, ptr noundef @__func__.QEMU_CONSOLE)
  ret ptr %call
}

; Function Attrs: nounwind sspstrong uwtable
define dso_local void @qemu_text_console_select(ptr noundef %c) #0 {
entry:
  %c.addr = alloca ptr, align 8
  store ptr %c, ptr %c.addr, align 8
  %0 = load ptr, ptr %c.addr, align 8
  %call = call ptr @QEMU_CONSOLE(ptr noundef %0)
  %1 = load ptr, ptr %c.addr, align 8
  %width = getelementptr inbounds %struct.QemuTextConsole, ptr %1, i32 0, i32 1
  %2 = load i32, ptr %width, align 8
  %3 = load ptr, ptr %c.addr, align 8
  %height = getelementptr inbounds %struct.QemuTextConsole, ptr %3, i32 0, i32 2
  %4 = load i32, ptr %height, align 4
  call void @dpy_text_resize(ptr noundef %call, i32 noundef %2, i32 noundef %4)
  call void @qemu_text_console_update_cursor()
  ret void
}