; Function Attrs: nounwind sspstrong uwtable
define dso_local void @qemu_text_console_select(ptr noundef %c) local_unnamed_addr #0 {
entry:
  %call.i = tail call ptr @object_dynamic_cast_assert(ptr noundef %c, ptr noundef nonnull @.str.3, ptr noundef nonnull @.str.4, i32 noundef 12, ptr noundef nonnull @__func__.QEMU_CONSOLE) #12
  %width = getelementptr inbounds nuw i8, ptr %c, i64 232
  %0 = load i32, ptr %width, align 8
  %height = getelementptr inbounds nuw i8, ptr %c, i64 236
  %1 = load i32, ptr %height, align 4
  tail call void @dpy_text_resize(ptr noundef %call.i, i32 noundef %0, i32 noundef %1) #12
  %2 = load i8, ptr @cursor_visible_phase, align 1
  %lnot.i = and i8 %2, 1
  %frombool.i = xor i8 %lnot.i, 1
  store i8 %frombool.i, ptr @cursor_visible_phase, align 1
  %call.i3 = tail call i32 @qemu_invalidate_text_consoles() #12
  %tobool1.not.i = icmp eq i32 %call.i3, 0
  br i1 %tobool1.not.i, label %qemu_text_console_update_cursor.exit, label %if.then.i

if.then.i:                                        ; preds = %entry
  %3 = load ptr, ptr @cursor_timer, align 8
  %call.i.i = tail call i64 @qemu_clock_get_ns(i32 noundef 0) #12
  %div.i.i = sdiv i64 %call.i.i, 1000000
  %add.i = add nsw i64 %div.i.i, 250
  tail call void @timer_mod(ptr noundef %3, i64 noundef %add.i) #12
  br label %qemu_text_console_update_cursor.exit

qemu_text_console_update_cursor.exit:             ; preds = %entry, %if.then.i
  ret void
}